target datalayout = "e-m:e-p270:32:32-p271:32:32-p272:64:64-i64:64-i128:128-f80:128-n8:16:32:64-S128"
target triple = "x86_64-pc-linux-gnu"

%struct.mcsheng = type { i16, i32, i16, i16, i32, i32, i32, i16, i16, i16, i16, i16, i8, i8, i8, [256 x i8], i32, i32, [256 x <2 x i64>] }
%struct.unaligned.0 = type { i16 }

; Function Attrs: alwaysinline nounwind uwtable
define internal void @unaligned_store_u16(ptr noundef %0, i16 noundef zeroext %1) #2 {
  %3 = alloca ptr, align 8
  %4 = alloca i16, align 2
  %5 = alloca ptr, align 8
  store ptr %0, ptr %3, align 8
  store i16 %1, ptr %4, align 2
  call void @llvm.lifetime.start.p0(i64 8, ptr %5) #9
  %6 = load ptr, ptr %3, align 8
  store ptr %6, ptr %5, align 8
  %7 = load i16, ptr %4, align 2
  %8 = load ptr, ptr %5, align 8
  %9 = getelementptr inbounds nuw %struct.unaligned.0, ptr %8, i32 0, i32 0
  store i16 %7, ptr %9, align 1
  call void @llvm.lifetime.end.p0(i64 8, ptr %5) #9
  ret void
}

; Function Attrs: nounwind uwtable
define hidden signext i8 @nfaExecMcSheng16_initCompressedState(ptr noundef %0, i64 noundef %1, ptr noundef %2, i8 noundef zeroext %3) #0 {
  %5 = alloca i8, align 1
  %6 = alloca ptr, align 8
  %7 = alloca i64, align 8
  %8 = alloca ptr, align 8
  %9 = alloca i8, align 1
  %10 = alloca ptr, align 8
  %11 = alloca i16, align 2
  %12 = alloca i32, align 4
  store ptr %0, ptr %6, align 8
  store i64 %1, ptr %7, align 8
  store ptr %2, ptr %8, align 8
  store i8 %3, ptr %9, align 1
  call void @llvm.lifetime.start.p0(i64 8, ptr %10) #9
  %13 = load ptr, ptr %6, align 8
  %14 = getelementptr inbounds nuw i8, ptr %13, i64 64
  store ptr %14, ptr %10, align 8
  call void @llvm.lifetime.start.p0(i64 2, ptr %11) #9
  %15 = load i64, ptr %7, align 8
  %16 = icmp ne i64 %15, 0
  br i1 %16, label %17, label %22

17:                                               ; preds = %4
  %18 = load ptr, ptr %10, align 8
  %19 = getelementptr inbounds nuw %struct.mcsheng, ptr %18, i32 0, i32 3
  %20 = load i16, ptr %19, align 2
  %21 = zext i16 %20 to i32
  br label %27

22:                                               ; preds = %4
  %23 = load ptr, ptr %10, align 8
  %24 = getelementptr inbounds nuw %struct.mcsheng, ptr %23, i32 0, i32 2
  %25 = load i16, ptr %24, align 8
  %26 = zext i16 %25 to i32
  br label %27

27:                                               ; preds = %22, %17
  %28 = phi i32 [ %21, %17 ], [ %26, %22 ]
  %29 = trunc i32 %28 to i16
  store i16 %29, ptr %11, align 2
  %30 = load i16, ptr %11, align 2
  %31 = icmp ne i16 %30, 0
  br i1 %31, label %32, label %35

32:                                               ; preds = %27
  %33 = load ptr, ptr %8, align 8
  %34 = load i16, ptr %11, align 2
  call void @unaligned_store_u16(ptr noundef %33, i16 noundef zeroext %34)
  store i8 1, ptr %5, align 1
  store i32 1, ptr %12, align 4
  br label %36

35:                                               ; preds = %27
  store i8 0, ptr %5, align 1
  store i32 1, ptr %12, align 4
  br label %36

36:                                               ; preds = %35, %32
  call void @llvm.lifetime.end.p0(i64 2, ptr %11) #9
  call void @llvm.lifetime.end.p0(i64 8, ptr %10) #9
  %37 = load i8, ptr %5, align 1
  ret i8 %37
}