; Function Attrs: mustprogress nofree norecurse nosync nounwind willreturn memory(argmem: readwrite) uwtable
define hidden signext range(i8 0, 2) i8 @nfaExecMcSheng16_initCompressedState(ptr noundef readonly captures(none) %0, i64 noundef %1, ptr noundef writeonly captures(none) %2, i8 noundef zeroext %3) local_unnamed_addr #4 {
  %.not = icmp eq i64 %1, 0
  %.in.in.v = select i1 %.not, i64 72, i64 74
  %.in.in = getelementptr inbounds nuw i8, ptr %0, i64 %.in.in.v
  %.in8 = load i16, ptr %.in.in, align 2
  %.not9 = icmp eq i16 %.in8, 0
  br i1 %.not9, label %6, label %5

5:                                                ; preds = %4
  store i16 %.in8, ptr %2, align 1
  br label %6

6:                                                ; preds = %4, %5
  %.0 = phi i8 [ 1, %5 ], [ 0, %4 ]
  ret i8 %.0
}